mads 2.1.6 build 66 (7 Jun 23)
Source: D:\!Delphi\mads\examples\demoscene\deform\deform.asm
     1 				; deform
     2 				;
     3 				; pr0be/laresistance 2004
     4 				;
     5 = 0020			tmp	equ $20
     6 = 0022			tmp2	equ $22
     7 = 0024			frame	equ $24
     8
     9 = 2800			antic	equ $2800
    10 = 2C00			antic2	equ $2c00
    11 = 3000			screen	equ $3000
    12 = 9000			texel0	equ $9000
    13 = A000			texel1	equ $a000
    14
    15 				;
    16 					org $8000
    17
    18 				; texture
    19 FFFF> 8000-8256> ED CB + texture	ins "texture.dat"
    20
    21 				; *-- generate antic --*
    22 8080 A0 03		start	ldy #$03
    23 8082 84 20			sty tmp
    24 8084 84 22			sty tmp2
    25 8086 88				dey
    26 8087 A9 70			lda #$70
    27 8089 99 00 28		_blank	sta antic,y
    28 808C 99 00 2C			sta antic2,y
    29 808F 88				dey
    30 8090 10 F7			bpl _blank
    31
    32 8092 A0 1F			ldy #$1f
    33 8094 B9 37 82		_tabu	lda tabu,y
    34 8097 99 57 82			sta tabu+$20,y
    35 809A 88				dey
    36 809B 10 F7			bpl _tabu
    37
    38 809D A9 28			lda #>antic
    39 809F 85 21			sta tmp+1
    40 80A1 A9 2C			lda #>antic2
    41 80A3 85 23			sta tmp2+1
    42
    43 80A5 A2 60			ldx #>[screen*2]
    44 80A7 A0 00		_genant	ldy #$00
    45 80A9 A9 4F			lda #$4f
    46 80AB 91 20			sta (tmp),y
    47 80AD 91 22			sta (tmp2),y
    48 80AF C8				iny
    49 80B0 A9 00			lda #$00
    50 80B2 91 20			sta (tmp),y
    51 80B4 A9 80			lda #$80
    52 80B6 91 22			sta (tmp2),y
    53 80B8 C8				iny
    54 80B9 8A				txa
    55 80BA 4A				lsr @
    56 80BB 91 20			sta (tmp),y
    57 80BD 91 22			sta (tmp2),y
    58 80BF C8				iny
    59 80C0 A9 00			lda #$00
    60 80C2 91 20			sta (tmp),y
    61 80C4 91 22			sta (tmp2),y
    62 80C6 A5 20			lda tmp
    63 80C8 18				clc
    64 80C9 69 04			adc #$04
    65 80CB 85 20			sta tmp
    66 80CD 85 22			sta tmp2
    67 80CF 90 04			bcc *+6
    68 80D1 E6 21			inc tmp+1
    69 80D3 E6 23			inc tmp2+1
    70 80D5 E8				inx
    71 80D6 E0 C0			cpx #>[screen*2+$6000]
    72 80D8 D0 CD			bne _genant
    73
    74 80DA A9 40			lda #$40
    75 80DC 8D 6F 02			sta 623
    76 80DF A9 F0			lda #$f0
    77 80E1 8D C8 02			sta $2c8
    78 80E4 A9 21			lda #%00100001
    79 80E6 8D 2F 02			sta 559
    80
    81 				; *-- texture --*
    82 80E9 A9 90			lda #>texel0
    83 80EB 85 21			sta tmp+1
    84 80ED A9 A0			lda #>texel1
    85 80EF 85 23			sta tmp2+1
    86
    87 80F1 A2 00		gentex0	ldx #$00
    88 80F3 86 20			stx tmp
    89 80F5 86 22			stx tmp2
    90 80F7 8E 30 02			stx $230
    91 80FA A0 00		gentex	ldy #$00
    92 80FC BD 00 80		_gentex	lda texture,x
    93 80FF 48				pha
    94 8100 29 F0			and #$f0
    95 8102 91 20		_gtex1	sta (tmp),y
    96 8104 4A				lsr @
    97 8105 4A				lsr @
    98 8106 4A				lsr @
    99 8107 4A				lsr @
   100 8108 91 22		_gtex0	sta (tmp2),y
   101 810A C8				iny
   102 810B 68				pla
   103 810C 29 0F			and #$0f
   104 810E 91 22		_gtex2	sta (tmp2),y
   105 8110 0A				asl @
   106 8111 0A				asl @
   107 8112 0A				asl @
   108 8113 0A				asl @
   109 8114 91 20		_gtex3	sta (tmp),y
   110 8116 E8				inx
   111 8117 8A				txa
   112 8118 29 07			and #$07
   113 811A AA				tax
   114 811B C8				iny
   115 811C C0 30			cpy #$30
   116 811E D0 DC			bne _gentex
   117 8120 E6 21			inc tmp+1
   118 8122 E6 23			inc tmp2+1
   119 8124 AD FD 80			lda _gentex+1
   120 8127 69 07			adc #$07
   121 8129 8D FD 80			sta _gentex+1
   122 812C 10 C3			bpl gentex0
   123
   124 				; *-- render --*
   125 812E A2 80		render	ldx #$80
   126 8130 A0 28			ldy #>antic
   127 8132 AD 9C 81			lda _scrbuf+1
   128 8135 F0 04			beq _flip
   129 8137 A2 00			ldx #$00
   130 8139 A0 2C			ldy #>antic2
   131 813B 8E 9C 81		_flip	stx _scrbuf+1
   132 813E AD 0B D4			lda $d40b
   133 8141 D0 FB			bne *-3
   134 8143 8C 03 D4			sty $d403
   135 8146 8C 31 02			sty $231
   136
   137 8149 E6 24			inc frame
   138 814B A5 24			lda frame
   139 814D 29 1F			and #$1f
   140 814F 85 24			sta frame
   141 8151 29 0F			and #$0f
   142 8153 85 25			sta frame+1
   143
   144 8155 A9 30			lda #>screen
   145 8157 8D 9D 81			sta _scrbuf+2
   146
   147 815A A9 00			lda #$00
   148 815C 85 21			sta tmp+1
   149 815E A9 90			lda #>texel0
   150 8160 18				clc
   151 8161 65 25			adc frame+1
   152 8163 8D 83 81			sta _tex0+2
   153 8166 A9 A0			lda #>texel1
   154 8168 65 25			adc frame+1
   155 816A 8D 9A 81			sta _tex1+2
   156 816D A9 00			lda #$00
   157 816F 85 22			sta tmp2
   158
   159 8171 A5 24		_deform	lda frame
   160 8173 8D 82 81			sta _tex0+1
   161 8176 8D 99 81			sta _tex1+1
   162 8179 A9 00			lda #$00
   163 817B 85 20			sta tmp
   164
   165 817D A8				tay
   166 817E A6 24			ldx frame
   167 8180 18				clc
   168 8181 AD 00 90		_tex0	lda texel0
   169 8184 85 23			sta tmp2+1
   170
   171 8186 A5 20			lda tmp
   172 8188 7D 37 82			adc tabu,x
   173 818B 85 20			sta tmp
   174 818D 90 07			bcc *+9
   175 818F EE 82 81			inc _tex0+1
   176 8192 EE 99 81			inc _tex1+1
   177 8195 18				clc
   178
   179 8196 A5 23			lda tmp2+1
   180 8198 0D 00 A0		_tex1	ora texel1
   181 819B 99 00 30		_scrbuf	sta screen,y
   182
   183 819E E8				inx
   184 819F A5 20			lda tmp
   185 81A1 7D 37 82			adc tabu,x
   186 81A4 85 20			sta tmp
   187 81A6 90 07			bcc *+9
   188 81A8 EE 82 81			inc _tex0+1
   189 81AB EE 99 81			inc _tex1+1
   190 81AE 18				clc
   191
   192 81AF E8				inx
   193 81B0 C8				iny
   194 81B1 C0 10			cpy #$10
   195 81B3 D0 CC			bne _tex0
   196
   197 81B5 A5 22			lda tmp2
   198 81B7 18				clc
   199 81B8 65 24			adc frame
   200 81BA AA				tax
   201 81BB A5 21			lda tmp+1
   202 81BD 7D 37 82			adc tabu,x
   203 81C0 85 21			sta tmp+1
   204 81C2 90 06			bcc *+8
   205 81C4 EE 83 81			inc _tex0+2
   206 81C7 EE 9A 81			inc _tex1+2
   207
   208 81CA AD 83 81			lda _tex0+2
   209 81CD C9 A0			cmp #>texel1
   210 81CF D0 0A			bne _scrl
   211 81D1 A9 90			lda #>texel0
   212 81D3 8D 83 81			sta _tex0+2
   213 81D6 A9 A0			lda #>texel1
   214 81D8 8D 9A 81			sta _tex1+2
   215
   216 81DB EE 9D 81		_scrl	inc _scrbuf+2
   217 81DE E6 22			inc tmp2
   218 81E0 A5 22			lda tmp2
   219 81E2 C9 20			cmp #$20
   220 81E4 D0 8B			bne _deform
   221
   222 				; copy buffer
   223 81E6 A9 30			lda #>screen
   224 81E8 8D 0E 82			sta _cpybuf+2
   225 81EB 8D 11 82			sta _cpybuf+5
   226 81EE 8D 24 82			sta cpybuf1+2
   227 81F1 18				clc
   228 81F2 69 20			adc #$20
   229 81F4 8D 27 82			sta cpybuf1+5
   230 81F7 AD 9C 81			lda _scrbuf+1
   231 81FA 8D 0D 82			sta _cpybuf+1
   232 81FD 8D 23 82			sta cpybuf1+1
   233 8200 8D 26 82			sta cpybuf1+4
   234 8203 69 10			adc #$10
   235 8205 8D 10 82			sta _cpybuf+4
   236
   237 8208 A0 20			ldy #$20
   238 820A A2 0F		cpybuf	ldx #$0f
   239 820C BD 00 30		_cpybuf	lda screen,x
   240 820F 9D 00 30			sta screen,x
   241 8212 CA				dex
   242 8213 10 F7			bpl _cpybuf
   243 8215 EE 0E 82			inc _cpybuf+2
   244 8218 EE 11 82			inc _cpybuf+5
   245 821B 88				dey
   246 821C D0 EC			bne cpybuf
   247
   248 821E A0 10			ldy #$10
   249 8220 A2 1F		cpybuf0	ldx #$1f
   250 8222 BD 00 30		cpybuf1	lda screen,x
   251 8225 9D 00 30			sta screen,x
   252 8228 CA				dex
   253 8229 10 F7			bpl cpybuf1
   254 822B EE 24 82			inc cpybuf1+2
   255 822E EE 27 82			inc cpybuf1+5
   256 8231 88				dey
   257 8232 D0 EC			bne cpybuf0
   258
   259 8234 4C 2E 81			jmp render
   260
   261 				; tables
   262 8237 80 8A 95 9F A7 AE + tabu	ins "tabu.dat"
   263
   264 8257				org $2983
   265 2983-2985> 41 00 28		dta $41,$00,>antic
   266
   267 2986				org $2d83
   268 2D83-2D85> 41 00 2C		dta $41,$00,>antic2
   269
   270 				;
   271 02E0-02E1> 80 80			run start
