mads 2.1.6
Source: D:\!Delphi\mads\examples\1024B\New Direction\new_direction.xsm
     1 				;----------------------------------------------------------------------------------------------------
     2 				; WRONG DIRECTION - 1k intro for Forever 14 party
     3 				;----------------------------------------------------------------------------------------------------
     4
     5 = D40A			wsync	equ $d40a
     6 = D40B			vcount	equ $d40b
     7 = 4000			buff1	equ $4000
     8 = 8000			buff2	equ $8000			; >=$8000 because of BPL in code
     9
    10 = 00FF			count		equ $ff
    11 = 00FE			x_frac		equ $fe
    12 = 00FD			adx_frac	equ $fd
    13 = 00FB			screen_ptr	equ $fb
    14 = 00FA			xl		equ $fa
    15 = 00F9			xl_frac		equ $f9
    16 = 00F8			hr_posx		equ $f8
    17 = 00F7			first_color	equ $f7
    18 = 00F6			index		equ $f6
    19 = 00F5			pattern		equ $f5
    20 = 00F4			height		equ $f4
    21 = 00F3			vr_limit	equ $f3
    22
    23
    24 FFFF> 02E0-02E1> 83 22		run start_of_intro
    25
    26 				  	org $2000
    27 				;----------------------------------------------------------------------------------------------------
    28 				; HORIZONTAL RAINBOW POSITION 0 - positioned here to have exact start address to avoid different cycle count of loops (page crossing) when adding/deleting instructions in code before
    29 				;----------------------------------------------------------------------------------------------------
    30 2000-2947> C8		clk0	iny				; 8 soubroutines to change background color on 8 different positions
    31 2001 8C 05 D4			sty $d405
    32 2004 A5 F7			lda first_color
    33 2006 8D 1A D0			sta $d01a
    34 2009 85 01			sta z:1
    35 200B 69 00			adc #$0
    36 200D 8D 1A D0		 	sta $d01a
    37 2010 69 00			adc #$0
    38 2012 8D 1A D0			sta $d01a
    39 2015 69 00			adc #$0
    40 2017 8D 1A D0			sta $d01a
    41 201A 69 00			adc #$0
    42 201C 8D 1A D0			sta $d01a
    43 201F 69 00			adc #$0
    44 2021 8D 1A D0			sta $d01a
    45 2024 65 00			adc z:$0
    46 2026 8D 1A D0			sta $d01a
    47 2029 EA				nop
    48 202A 69 00			adc #$0
    49 202C 8D 1A D0			sta $d01a
    50 202F EA				nop
    51 2030 69 00			adc #$0
    52 2032 8D 1A D0			sta $d01a
    53 2035 EA				nop
    54 2036 69 00			adc #$0
    55 2038 8D 1A D0			sta $d01a
    56 203B EA				nop
    57 203C 69 00			adc #$0
    58 203E 8D 1A D0			sta $d01a
    59 2041 EA				nop
    60 2042 69 00			adc #$0
    61 2044 8D 1A D0			sta $d01a
    62 2047 EA EA		:2	nop
    63 2049 85 01			sta z:1
    64 204B CA				dex
    65 204C D0 B2			bne clk0
    66
    67 204E 4C 9E 23			jmp jsrret
    68
    69
    70 				;----------------------------------------------------------------------------------------------------
    71 				; HORIZONTAL RAINBOW POSITION 1
    72 				;----------------------------------------------------------------------------------------------------
    73 2051 C8			clk1	iny
    74 2052 8C 05 D4			sty $d405
    75 2055 A5 F7			lda first_color
    76 2057 8D 1A D0			sta $d01a
    77 205A EA				nop
    78 205B 69 00			adc #$0
    79 205D 8D 1A D0		 	sta $d01a
    80 2060 69 00			adc #$0
    81 2062 8D 1A D0			sta $d01a
    82 2065 69 00			adc #$0
    83 2067 8D 1A D0			sta $d01a
    84 206A 69 00			adc #$0
    85 206C 8D 1A D0			sta $d01a
    86 206F 69 00			adc #$0
    87 2071 8D 1A D0			sta $d01a
    88 2074 EA				nop
    89 2075 69 00			adc #$0
    90 2077 8D 1A D0			sta $d01a
    91 207A EA				nop
    92 207B 69 00			adc #$0
    93 207D 8D 1A D0			sta $d01a
    94 2080 EA				nop
    95 2081 69 00			adc #$0
    96 2083 8D 1A D0			sta $d01a
    97 2086 EA				nop
    98 2087 69 00			adc #$0
    99 2089 8D 1A D0			sta $d01a
   100 208C EA				nop
   101 208D 69 00			adc #$0
   102 208F 8D 1A D0			sta $d01a
   103 2092 EA				nop
   104 2093 69 00			adc #$0
   105 2095 8D 1A D0			sta $d01a
   106 2098 EA EA		:2	nop
   107 209A 85 01			sta z:1
   108 209C CA				dex
   109 209D D0 B2			bne clk1
   110
   111 209F 4C 9E 23			jmp jsrret
   112
   113
   114 				;----------------------------------------------------------------------------------------------------
   115 				; HORIZONTAL RAINBOW POSITION 2
   116 				;----------------------------------------------------------------------------------------------------
   117 20A2 C8			clk2    iny
   118 20A3 8C 05 D4			sty $d405
   119 20A6 A5 F7			lda first_color
   120 20A8 8D 1A D0			sta $d01a
   121 20AB EA EA		:2	nop
   122 20AD 69 00			adc #$0
   123 20AF 8D 1A D0		 	sta $d01a
   124 20B2 69 00			adc #$0
   125 20B4 8D 1A D0			sta $d01a
   126 20B7 69 00			adc #$0
   127 20B9 8D 1A D0			sta $d01a
   128 20BC 69 00			adc #$0
   129 20BE 8D 1A D0			sta $d01a
   130 20C1 69 00			adc #$0
   131 20C3 8D 1A D0			sta $d01a
   132 20C6 EA				nop
   133 20C7 69 00			adc #$0
   134 20C9 8D 1A D0			sta $d01a
   135 20CC EA				nop
   136 20CD 69 00			adc #$0
   137 20CF 8D 1A D0			sta $d01a
   138 20D2 EA				nop
   139 20D3 69 00			adc #$0
   140 20D5 8D 1A D0			sta $d01a
   141 20D8 EA				nop
   142 20D9 69 00			adc #$0
   143 20DB 8D 1A D0			sta $d01a
   144 20DE EA				nop
   145 20DF 69 00			adc #$0
   146 20E1 8D 1A D0			sta $d01a
   147 20E4 EA				nop
   148 20E5 69 00			adc #$0
   149 20E7 8D 1A D0			sta $d01a
   150 20EA EA				nop
   151 20EB 85 01			sta z:1
   152 20ED CA				dex
   153 20EE D0 B2			bne clk2
   154
   155 20F0 4C 9E 23			jmp jsrret
   156
   157
   158 				;----------------------------------------------------------------------------------------------------
   159 				; HORIZONTAL RAINBOW POSITION 3
   160 				;----------------------------------------------------------------------------------------------------
   161 20F3 C8			clk3    iny
   162 20F4 8C 05 D4			sty $d405
   163 20F7 A5 F7			lda first_color
   164 20F9 8D 1A D0			sta $d01a
   165 20FC EA EA		:2	nop
   166 20FE 69 00			adc #$0
   167 2100 8D 1A D0		 	sta $d01a
   168 2103 69 00			adc #$0
   169 2105 8D 1A D0			sta $d01a
   170 2108 69 00			adc #$0
   171 210A 8D 1A D0			sta $d01a
   172 210D 69 00			adc #$0
   173 210F 8D 1A D0			sta $d01a
   174 2112 69 00			adc #$0
   175 2114 8D 1A D0			sta $d01a
   176 2117 EA				nop
   177 2118 69 00			adc #$0
   178 211A 8D 1A D0			sta $d01a
   179 211D EA				nop
   180 211E 69 00			adc #$0
   181 2120 8D 1A D0			sta $d01a
   182 2123 EA				nop
   183 2124 69 00			adc #$0
   184 2126 8D 1A D0			sta $d01a
   185 2129 EA				nop
   186 212A 69 00			adc #$0
   187 212C 8D 1A D0			sta $d01a
   188 212F EA				nop
   189 2130 69 00			adc #$0
   190 2132 8D 1A D0			sta $d01a
   191 2135 EA				nop
   192 2136 69 00			adc #$0
   193 2138 8D 1A D0			sta $d01a
   194 213B EA EA		:2	nop
   195 213D CA				dex
   196 213E D0 B3			bne clk3
   197
   198 2140 4C 9E 23			jmp jsrret
   199
   200
   201 				;----------------------------------------------------------------------------------------------------
   202 				; HORIZONTAL RAINBOW POSITION 4
   203 				;----------------------------------------------------------------------------------------------------
   204 2143 C8			clk4    iny
   205 2144 8C 05 D4			sty $d405
   206 2147 A5 F7			lda first_color
   207 2149 8D 1A D0			sta $d01a
   208 214C EA EA EA		:3	nop
   209 214F 69 00			adc #$0
   210 2151 8D 1A D0		 	sta $d01a
   211 2154 69 00			adc #$0
   212 2156 8D 1A D0			sta $d01a
   213 2159 69 00			adc #$0
   214 215B 8D 1A D0			sta $d01a
   215 215E 69 00			adc #$0
   216 2160 8D 1A D0			sta $d01a
   217 2163 69 00			adc #$0
   218 2165 8D 1A D0			sta $d01a
   219 2168 EA				nop
   220 2169 69 00			adc #$0
   221 216B 8D 1A D0			sta $d01a
   222 216E EA				nop
   223 216F 69 00		  	adc #$0
   224 2171 8D 1A D0			sta $d01a
   225 2174 EA				nop
   226 2175 69 00			adc #$0
   227 2177 8D 1A D0			sta $d01a
   228 217A EA				nop
   229 217B 69 00			adc #$0
   230 217D 8D 1A D0			sta $d01a
   231 2180 EA				nop
   232 2181 69 00			adc #$0
   233 2183 8D 1A D0			sta $d01a
   234 2186 EA				nop
   235 2187 69 00			adc #$0
   236 2189 8D 1A D0			sta $d01a
   237 218C 85 01			sta z:1
   238 218E CA				dex
   239 218F D0 B2			bne clk4
   240
   241 2191 4C 9E 23			jmp jsrret
   242
   243
   244 				;----------------------------------------------------------------------------------------------------
   245 				; HORIZONTAL RAINBOW POSITION 5
   246 				;----------------------------------------------------------------------------------------------------
   247 2194 C8			clk5    iny
   248 2195 8C 05 D4			sty $d405
   249 2198 A5 F7			lda first_color
   250 219A 8D 1A D0			sta $d01a
   251 219D EA				nop
   252 219E 85 01			sta z:1
   253 21A0 69 00			adc #$0
   254 21A2 8D 1A D0		 	sta $d01a
   255 21A5 69 00			adc #$0
   256 21A7 8D 1A D0			sta $d01a
   257 21AA 69 00			adc #$0
   258 21AC 8D 1A D0			sta $d01a
   259 21AF 69 00			adc #$0
   260 21B1 8D 1A D0			sta $d01a
   261 21B4 65 00			adc z:$0
   262 21B6 8D 1A D0			sta $d01a
   263 21B9 EA				nop
   264 21BA 69 00			adc #$0
   265 21BC 8D 1A D0			sta $d01a
   266 21BF EA				nop
   267 21C0 69 00			adc #$0
   268 21C2 8D 1A D0			sta $d01a
   269 21C5 EA				nop
   270 21C6 69 00			adc #$0
   271 21C8 8D 1A D0			sta $d01a
   272 21CB EA				nop
   273 21CC 69 00			adc #$0
   274 21CE 8D 1A D0			sta $d01a
   275 21D1 EA				nop
   276 21D2 69 00			adc #$0
   277 21D4 8D 1A D0			sta $d01a
   278 21D7 EA				nop
   279 21D8 69 00			adc #$0
   280 21DA 8D 1A D0			sta $d01a
   281 21DD 85 01			sta z:1
   282 21DF CA				dex
   283 21E0 D0 B2			bne clk5
   284
   285 21E2 4C 9E 23			jmp jsrret
   286
   287
   288 				;----------------------------------------------------------------------------------------------------
   289 				; HORIZONTAL RAINBOW POSITION 6
   290 				;----------------------------------------------------------------------------------------------------
   291 21E5 C8			clk6    iny
   292 21E6 8C 05 D4			sty $d405
   293 21E9 A5 F7			lda first_color
   294 21EB 8D 1A D0			sta $d01a
   295 21EE EA EA		:2	nop
   296 21F0 85 01			sta z:1
   297 21F2 69 00			adc #$0
   298 21F4 8D 1A D0		 	sta $d01a
   299 21F7 69 00			adc #$0
   300 21F9 8D 1A D0			sta $d01a
   301 21FC 69 00			adc #$0
   302 21FE 8D 1A D0			sta $d01a
   303 2201 69 00			adc #$0
   304 2203 8D 1A D0			sta $d01a
   305 2206 65 00			adc z:$0
   306 2208 8D 1A D0			sta $d01a
   307 220B EA				nop
   308 220C 69 00			adc #$0
   309 220E 8D 1A D0			sta $d01a
   310 2211 EA				nop
   311 2212 69 00			adc #$0
   312 2214 8D 1A D0			sta $d01a
   313 2217 EA				nop
   314 2218 69 00			adc #$0
   315 221A 8D 1A D0			sta $d01a
   316 221D EA				nop
   317 221E 69 00			adc #$0
   318 2220 8D 1A D0			sta $d01a
   319 2223 EA				nop
   320 2224 69 00			adc #$0
   321 2226 8D 1A D0			sta $d01a
   322 2229 EA				nop
   323 222A 69 00			adc #$0
   324 222C 8D 1A D0			sta $d01a
   325 222F CA				dex
   326 2230 D0 B3			bne clk6
   327
   328 2232 4C 9E 23			jmp jsrret
   329
   330
   331 				;----------------------------------------------------------------------------------------------------
   332 				; HORIZONTAL RAINBOW POSITION 7
   333 				;----------------------------------------------------------------------------------------------------
   334 2235 C8			clk7    iny
   335 2236 8C 05 D4			sty $d405
   336 2239 A5 F7			lda first_color
   337 223B 8D 1A D0			sta $d01a
   338 223E EA EA EA		:3	nop
   339 2241 65 00			adc z:$0
   340 2243 8D 1A D0		 	sta $d01a
   341 2246 69 00			adc #$0
   342 2248 8D 1A D0			sta $d01a
   343 224B 69 00			adc #$0
   344 224D 8D 1A D0			sta $d01a
   345 2250 69 00			adc #$0
   346 2252 8D 1A D0			sta $d01a
   347 2255 65 00			adc z:$0
   348 2257 8D 1A D0			sta $d01a
   349 225A EA				nop
   350 225B 69 00			adc #$0
   351 225D 8D 1A D0			sta $d01a
   352 2260 EA				nop
   353 2261 69 00			adc #$0
   354 2263 8D 1A D0			sta $d01a
   355 2266 EA				nop
   356 2267 69 00			adc #$0
   357 2269 8D 1A D0			sta $d01a
   358 226C EA				nop
   359 226D 69 00			adc #$0
   360 226F 8D 1A D0			sta $d01a
   361 2272 EA				nop
   362 2273 69 00			adc #$0
   363 2275 8D 1A D0			sta $d01a
   364 2278 EA EA EA		:3	nop
   365 227B 85 01			sta z:1
   366 227D CA				dex
   367 227E D0 B5			bne clk7
   368
   369 2280 4C 9E 23			jmp jsrret
   370
   371
   372 				;----------------------------------------------------------------------------------------------------
   373 				; START OF INTRO
   374 				;----------------------------------------------------------------------------------------------------
   375 2283			start_of_intro
   376 2283 A9 00			lda #0
   377 2285 AA				tax
   378 2286 95 00		clrmem	sta z:$0,x
   379 2288 9D 2F 02			sta $22f,x			; will clear DMA and set colors at $2Cx to black
   380 228B E8				inx
   381 228C D0 F8			bne clrmem
   382 228E A9 03			lda #3
   383 2290 8D 0F D2			sta $d20f
   384 2293 85 F5			sta pattern
   385 2295 A9 80			lda >buff2
   386 2297 85 FC			sta screen_ptr+1
   387 2299 20 0C 24			jsr rotate
   388
   389 229C A0 51			ldy <vbi
   390 229E A2 24			ldx >vbi
   391 22A0 A9 07			lda #7
   392 22A2 20 5C E4			jsr $e45c
   393
   394
   395 				;----------------------------------------------------------------------------------------------------
   396 				;VERTICAL RAINBOW
   397 				;----------------------------------------------------------------------------------------------------
   398 22A5 A9 04		vr_loop	lda #4				; simple atari vertical rainbow
   399 22A7 CD 0B D4			cmp vcount
   400 22AA D0 FB			bne *-3
   401 22AC 4A				lsr @
   402 22AD 8D 08 D2			sta $d208			; AUDCTL = 2 (high pass filter chan.2)
   403 22B0 8D 0A D4			sta wsync
   404 22B3 A2 EC			ldx #236
   405 22B5 86 F4			stx height                      
   406 22B7 E8				inx
   407 22B8 AD 0B D4		vr_line	lda vcount
   408 22BB 18				clc
   409 22BC 65 14			adc $14
   410 22BE D0 07			bne limit
   411 22C0 A4 13			ldy $13
   412 22C2 F0 03			beq limit
   413 22C4 8D DC 22			sta branch+1
   414 22C7 E4 F3		limit	cpx vr_limit
   415 22C9 8D 0A D4			sta wsync
   416 22CC B0 02			bcs *+4
   417 22CE 29 0F			and #$f
   418 22D0 49 0F			eor #$f
   419 22D2 8D 1A D0			sta $d01a
   420 22D5 CA				dex
   421 22D6 D0 E0			bne vr_line
   422 22D8 8E 1A D0			stx $d01a
   423 22DB F0 04		branch	beq *+6
   424 22DD E6 F3			inc vr_limit
   425 22DF E6 F3		        inc vr_limit
   426 22E1 A5 F5			lda pattern
   427 22E3 29 02			and #2
   428 22E5 D0 BE			bne vr_loop
   429
   430
   431 				;----------------------------------------------------------------------------------------------------
   432 				; ROTATING BARS
   433 				;----------------------------------------------------------------------------------------------------
   434 22E7 A9 BA			lda <dli
   435 22E9 8D 00 02			sta $200
   436 22EC A9 24			lda >dli
   437 22EE 8D 01 02			sta $201
   438 22F1 A9 C0			lda #$c0
   439 22F3 8D 0E D4			sta $d40e
   440 22F6 A9 63			lda #$40+35
   441 22F8 8D 6F 02			sta $26f    			; $40 for GTIA mode 9 - 16 lumas (don't care about lower bits as we dont use PMG)
   442 22FB 8D 2F 02			sta $22f                        ; 35 for wide playfield (bit 5 unused by DMACTL)
   443 22FE A9 CA			lda <dlist
   444 2300 8D 30 02			sta $230			; set approportiate dlist
   445 2303 A9 24			lda >dlist
   446 2305 8D 31 02		        sta $231
   447
   448 2308			rotate_loop
   449 2308 AD 60 27			lda rotatetab
   450 230B 85 FD			sta adx_frac
   451 230D A9 00			lda #0				; prepare pointer to the screen
   452 230F 85 FB			sta screen_ptr
   453 2311 A9 40		chn	lda >buff1
   454 2313 85 FC			sta screen_ptr+1
   455 2315 49 C0			eor #[>buff1^>buff2]            ; double buffering, so changing screen start address
   456 2317 8D 12 23			sta chn+1
   457 231A 8D CD 24			sta dlist+3
   458 231D A5 14			lda $14
   459 231F C5 14			cmp $14
   460 2321 F0 FC			beq *-2
   461 2323 20 0C 24			jsr rotate			; draw next rotate step in the not visible buffer
   462 2326 CE 1A 24			dec cislo+1
   463 2329 EE 09 23			inc rotate_loop+1
   464 232C AD 09 23		 	lda rotate_loop+1
   465 232F C9 B1		 	cmp #<rte+1			; end of table?
   466 2331 D0 D5			bne rotate_loop
   467
   468
   469 				;----------------------------------------------------------------------------------------------------
   470 				;HORIZONTAL RAINBOW
   471 				;----------------------------------------------------------------------------------------------------
   472 2333 A9 09			lda <dlist2                     ; setup dlist for horizontal rainbow effect
   473 2335 8D 30 02		  	sta $230
   474 2338 A9 25		  	lda >dlist2
   475 233A 8D 31 02		  	sta $231
   476 233D 8D 6F 02			sta $26f			; no GTIA mode (bits 6&7 not set)
   477 2340 A5 14			lda $14
   478 2342 C5 14		 	cmp $14
   479 2344 F0 FC		 	beq *-2
   480 2346 85 F8			sta hr_posx
   481
   482 2348 A5 F8		hr_loop	lda hr_posx
   483 234A 29 07			and #7
   484 234C 0A				asl @
   485 234D 8D 04 D4			sta $d404			; hscroll
   486 2350 AA				tax
   487 2351 BD 10 25			lda jmptab,x			; prepare jump address to different soubroutines and pointer for searching zeroes based on position
   488 2354 85 FB			sta screen_ptr
   489 2356 BD 11 25			lda jmptab+1,x
   490 2359 85 FC			sta screen_ptr+1
   491
   492 235B A0 50		        ldy #80				; search current coloring soubroutine for last adc #0 and change to adc #$10
   493 235D B1 FB		search0	lda (screen_ptr),y
   494 235F F0 0D			beq found0
   495 2361 88				dey
   496 2362 D0 F9			bne search0
   497 2364 AD 7A 23			lda chngcol+1
   498 2367 09 10			ora #$10                        ; no adc #0 or adc z:0 found, so start color cycling
   499 2369 8D 7A 23			sta chngcol+1
   500 236C D0 04			bne rotcol
   501 236E A9 00		found0	lda #$0
   502 2370 91 FB			sta (screen_ptr),y
   503
   504 2372 E0 00		rotcol	cpx #0
   505 2374 D0 07			bne nocol
   506 2376 A5 F7			lda first_color
   507 2378 18				clc
   508 2379 69 00		chngcol	adc #$0
   509 237B 85 F7			sta first_color
   510
   511 237D A6 F4		nocol	ldx height     			; height of bars
   512 237F A0 00			ldy #0
   513 2381 8C 05 D4			sty $d405
   514 2384 A9 04			lda #4
   515 2386 8D 0A D4			sta wsync
   516 2389 CD 0B D4			cmp vcount
   517 238C D0 F8			bne *-6
   518
   519 238E C8				iny
   520 238F 8C 05 D4			sty $d405			; start of VSCROL trick to lenghten one scanline over whole screen
   521 2392 8D 0A D4			sta wsync
   522 2395 18				clc
   523 2396 A9 40		        lda #$40			; GTIA mode 9
   524 2398 8D 1B D0		        sta $d01b
   525
   526 239B 6C FB 00			jmp (screen_ptr)		; jump to specific soubroutine based on hscroll value
   527 239E 8E 1A D0		jsrret	stx $d01a			; x=0 from CLOCKx soubroutines
   528 23A1 8E 1B D0			stx $d01b
   529
   530 23A4 A9 EC			lda #236			; calculate actual height of vertical rainbow
   531 23A6 38				sec
   532 23A7 E5 F4			sbc height
   533 23A9 F0 15			beq novbow
   534 23AB A8				tay
   535 23AC AD 0B D4		vbow	lda vcount			; vertical rainbow loop
   536 23AF 18				clc
   537 23B0 8D 0A D4			sta wsync
   538 23B3 65 14		        adc $14
   539 23B5 49 0F			eor #$f
   540 23B7 8D 1A D0			sta $d01a
   541 23BA 88				dey
   542 23BB D0 EF			bne vbow
   543 23BD 8C 1A D0			sty $d01a
   544
   545 23C0 8D 0A D4		novbow	sta wsync
   546 23C3 A5 14			lda $14
   547 23C5 05 F5			ora pattern
   548 23C7 D0 29			bne direct
   549 23C9 85 F8			sta hr_posx
   550 23CB AD F2 23			lda direct
   551 23CE 49 20			eor #[{inc z:}^{dec z:}]        ; change motion from left-right to right-left
   552 23D0 8D F2 23			sta direct
   553 23D3 A9 10			lda #$10
   554 23D5 85 10			sta $10
   555 23D7 8D 6F 23			sta found0+1			; allow color income
   556 23DA AD 73 23			lda rotcol+1
   557 23DD 49 0E			eor #14
   558 23DF 8D 73 23			sta rotcol+1
   559 23E2 AD 7A 23			lda chngcol+1
   560 23E5 F0 0B			beq direct
   561 23E7 49 E0			eor #[$f0^$10]
   562 23E9 8D 7A 23			sta chngcol+1
   563 23EC A5 FF			lda count
   564 23EE D0 02			bne direct
   565 23F0 C6 FF			dec count			; allow height changing
   566
   567 23F2 E6 F8		direct	inc hr_posx
   568 23F4 A5 F4			lda height			; changing height of horizontal rainbow
   569 23F6 18				clc
   570 23F7 65 FF			adc count
   571 23F9 F0 04			beq lim
   572 23FB C9 ED			cmp #237
   573 23FD D0 08			bne nolim
   574 23FF A5 FF		lim	lda count			; we hit the top/bottom edge so reverse direction
   575 2401 49 FE			eor #$fe
   576 2403 85 FF			sta count
   577 2405 D0 ED			bne direct+2
   578 2407 85 F4		nolim	sta height
   579
   580 2409 4C 48 23			jmp hr_loop
   581
   582
   583 				;----------------------------------------------------------------------------------------------------
   584 				; ROTATE SOUBROUTINE
   585 				;----------------------------------------------------------------------------------------------------
   586 240C A9 00		rotate	lda #0
   587 240E 85 FA			sta xl
   588 2410 A9 3B		        lda #59				; 59 "mode" lines
   589 2412 85 FF		        sta count
   590 2414 85 F9			sta xl_frac
   591 2416 A5 F9		draw	lda xl_frac
   592 2418 38				sec
   593 2419 6D AF 27		cislo	adc rte-1			; get fraction from table (how much we rotate)
   594 241C 85 F9			sta xl_frac
   595 241E 85 FE			sta x_frac
   596 2420 90 02			bcc *+4
   597 2422 E6 FA			inc xl
   598 2424 A6 FA			ldx xl
   599 2426 A0 2F		 	ldy #47				; 48 bytes per line
   600 2428			drawline
   601 2428 A5 FE			lda x_frac
   602 242A 65 FD			adc adx_frac                    ; add fraction to x position in texture
   603 242C 90 01			bcc *+3
   604 242E E8				inx 				; move in texture
   605 242F 65 FD			adc adx_frac                    ; add fraction for 2nd pixel
   606 2431 85 FE			sta x_frac
   607 2433 BD 20 25			lda textura,x                   ; both pixels in byte has the same color?
   608 2436 90 04			bcc *+6				; yes, plot it
   609 2438 E8				inx
   610 2439 BD 20 26			lda textura2,x			; no, get byte with two different colors
   611 243C 91 FB			sta (screen_ptr),y
   612 243E 88				dey
   613 243F 10 E7			bpl drawline
   614
   615 2441 A5 FB			lda screen_ptr
   616 2443 18				clc
   617 2444 69 30			adc #48                         ; wide screen - 48 bytes each line
   618 2446 85 FB			sta screen_ptr
   619 2448 90 02			bcc *+4
   620 244A E6 FC			inc screen_ptr+1
   621 244C C6 FF			dec count
   622 244E D0 C6			bne draw
   623
   624 2450 60				rts
   625
   626
   627 				;----------------------------------------------------------------------------------------------------
   628 				; VBI MUSIC ROUTINE
   629 				;----------------------------------------------------------------------------------------------------
   630 2451 A5 14		vbi	lda $14
   631 2453 29 07			and #7				; 8 frames per note
   632 2455 A8				tay
   633 2456 D0 0C			bne nonewnote
   634 2458 E6 F6			inc index
   635 245A A5 F6			lda index
   636 245C 29 3F			and #$3f			; 64 bytes in track
   637 245E 85 F6			sta index
   638 2460 D0 02			bne nonewnote
   639 2462 46 F5			lsr pattern
   640
   641 2464			nonewnote
   642 2464 A6 F6			ldx index
   643 2466 A5 F5			lda pattern
   644 2468 D0 1E			bne nosnare
   645 246A BD F0 27			lda track2,x
   646 246D F0 19			beq nosnare
   647 246F 30 0B			bmi snare
   648 2471 8D 04 D2			sta $d204
   649 2474 B9 30 29			lda audc2,y
   650 2477 8D 05 D2			sta $d205
   651 247A D0 0C			bne nosnare
   652 247C B9 38 29		snare	lda audf3,y			; snare drum
   653 247F 8D 04 D2			sta $d204
   654 2482 B9 40 29			lda audc3,y
   655 2485 8D 05 D2			sta $d205
   656
   657 2488 BD B0 27		nosnare	lda track,x
   658 248B A2 A8			ldx #$a8
   659 248D C0 00			cpy #0				; the pitch of note is different in first frame
   660 248F D0 03			bne *+5
   661 2491 4A				lsr @				; freq/2
   662 2492 A2 AC			ldx #$ac
   663 2494 8D 00 D2			sta $d200
   664 2497 8E 01 D2			stx $d201
   665
   666 249A A5 F5			lda pattern
   667 249C 29 02			and #2
   668 249E D0 17			bne exitnmi
   669 24A0 A5 13			lda $13
   670 24A2 4A				lsr @
   671 24A3 A5 14			lda $14
   672 24A5 6A				ror @
   673 24A6 AA				tax
   674 24A7 BD 30 28			lda trylek,x
   675 24AA 8D 02 D2			sta $d202
   676 24AD AA				tax
   677 24AE E8				inx
   678 24AF 8E 06 D2			stx $d206
   679 24B2 A9 A8			lda #$a8
   680 24B4 8D 03 D2			sta $d203
   681
   682 24B7 4C 62 E4		exitnmi	jmp $e462			; OS NMI exit vector
   683
   684
   685 				;----------------------------------------------------------------------------------------------------
   686 				; DLI FOR MODE 9++
   687 				;----------------------------------------------------------------------------------------------------
   688 24BA 48			dli	pha
   689 24BB 8D 0A D4			sta wsync
   690 24BE A9 0D			lda #$d
   691 24C0 8D 05 D4			sta $d405
   692 24C3 A9 03			lda #3
   693 24C5 8D 05 D4			sta $d405
   694 24C8 68				pla
   695 24C9 40				rti
   696
   697
   698 				;----------------------------------------------------------------------------------------------------
   699 				; DATA
   700 				;----------------------------------------------------------------------------------------------------
   701 24CA 90			dlist	dta $90
   702 24CB 6F 00 40			dta $6f,a(buff1)
   703 24CE 8F 2F 8F 2F 8F 2F + :29	dta $8f,$2f
   704 2508 41				dta $41
   705
   706 2509 7F 80 00		dlist2	dta $7f,a($80)
   707 250C 5F 20 27			dta $5f,a(bardata)
   708 250F 41				dta $41
   709
   710 2510 00 20 51 20 A2 20 + jmptab	dta a(clk0),a(clk1),a(clk2),a(clk3),a(clk4),a(clk5),a(clk6),a(clk7)
   711
   712 2520 CC AA 88 66 44 22 + textura	:32 dta $cc,$aa,$88,$66,$44,$22,$00,$ee	; data for drawing rotating bars, both pixels in a byte has the same color
   713
   714 2620 CE AC 8A 68 46 24 + textura2 :32 dta $ce,$ac,$8a,$68,$46,$24,$02,$e0 ; when there are different colors in a byte
   715
   716 2720			bardata
   717 2720 02 46 8A CE 02 46 + :16	dta $02,$46,$8a,$ce		; screen data for gtia mode 9 bars
   718
   719 					ert >rte<>>rotatetab
   720 2760 03 07 0A 0D 11 14 + rotatetab	dta 3,7,10,13,17,20,24,28,31,35,39,43,47,51,55,59,64,68,72,77,81,86,91,96,100,105,110,115,120,125	; values for rotator soubroutine for different angles
   721 277E 83 88 8D 93 98 9E + 		dta 131,136,141,147,152,158,163,169,175,180,183,187,190,193,195,198,201,204,206,209,211,214,216,218
   722 2796 DD DF E1 E3 E5 E7 + 		dta 221,223,225,227,229,231,233,234,236,238,239,241,242,244,245,246,247,249,250,251,251,252,253,254,254,255
   723 27B0			rte
   724
   725 27B0 48 5B 6C 5B 6C 90 + track	dta $48,$5B,$6C,$5B,$6C,$90,$B5,$90,$48,$5B,$6C,$5B,$6C,$90,$B5,$90	; music data
   726 27C0 51 60 79 60 79 A2 + 	dta $51,$60,$79,$60,$79,$A2,$C1,$A2,$51,$60,$79,$60,$79,$A2,$C1,$A2
   727 27D0 44 51 6C 51 6C 88 + 	dta $44,$51,$6C,$51,$6C,$88,$A2,$88,$44,$51,$6C,$51,$6C,$88,$A2,$88
   728 27E0 44 51 6C 51 6C 88 + 	dta $44,$51,$6C,$51,$6C,$88,$A2,$88,$44,$51,$6C,$51,$6C,$88,$A2,$88
   729
   730 27F0 39 00 39 00 80 39 + track2	dta $39,0,$39,0,$80,$39,0,$3f,$39,$39,$39,0,$80,0,0,0
   731 2800 3F 00 3F 00 80 3F + 	dta $3f,0,$3f,0,$80,$3f,0,$48,$3f,$3f,$3f,0,$80,0,0,$80
   732 2810 33 00 33 00 80 33 + 	dta $33,0,$33,0,$80,$33,0,$39,$33,$33,$33,0,$80,0,0,0
   733 2820 39 00 39 00 80 39 + 	dta $39,0,$39,0,$80,$39,0,$3f,$39,$39,$39,0,$80,0,$80,$80
   734
   735 2830 90 6C B5 90 6C B5 + trylek	:21 dta $90,$6c,$b5
   736 286F 90				dta $90
   737 2870 A2 79 C1 A2 79 C1 +         :21 dta $a2,$79,$c1
   738 28AF A2				dta $a2
   739 28B0 88 60 A2 88 60 A2 +         :21 dta $88,$60,$a2
   740 28EF 88				dta $88
   741 28F0 88 6C A2 88 6C A2 +         :21 dta $88,$6c,$a2
   742 292F 88				dta $88
   743
   744 2930 CC C8 C8 C8 C8 C8 + audc2	dta $cc,$c8,$c8,$c8,$c8,$c8,$c8,$c2
   745
   746 2938 02 A0 C0 02 02 02 + audf3	dta 2,$a0,$c0,2,2,2,2,0
   747
   748 2940 09 A9 A9 88 86 84 + audc3	dta 9,$a9,$a9,$88,$86,$84,$82,0
